
Memory Configuration

Name             Origin             Length             Attributes
*default*        0x0000000000000000 0xffffffffffffffff

Linker script and memory map


.text           0x0000000000000000     0x5a31
                0x0000000000000000                code = .
                0x0000000000000000                _code = .
                0x0000000000000000                __code = .
 *(.text)
 .text          0x0000000000000000     0x5080 setup.o
                0x0000000000000000                startup_32
 .text          0x0000000000005080       0xcc print.o
                0x00000000000050f3                pause
                0x00000000000050f9                main
 .text          0x000000000000514c      0x388 printk.o
                0x0000000000005210                printk
 .text          0x00000000000054d4      0x20b libcc.o
                0x00000000000054d4                bcopy
                0x0000000000005534                bzero
                0x0000000000005556                memcpy
                0x000000000000557a                memset
                0x00000000000055a5                memcmp
                0x0000000000005609                strcmp
                0x000000000000567b                strcpy
                0x00000000000056b4                strlen
 *fill*         0x00000000000056df        0x1 00
 .text          0x00000000000056e0      0x351 scr.o
                0x00000000000057b4                set_cursor
                0x0000000000005841                print_c

.data           0x0000000000005a40      0x404
                0x0000000000005a40                data = .
                0x0000000000005a40                _data = .
                0x0000000000005a40                __data = .
 *(.data)
 .data          0x0000000000005a40        0x0 setup.o
 .data          0x0000000000005a40        0x0 print.o
 .data          0x0000000000005a40      0x404 printk.o
 .data          0x0000000000005e44        0x0 libcc.o
 .data          0x0000000000005e44        0x0 scr.o

.bss            0x0000000000005e44        0x8
                0x0000000000005e44                bss = .
                0x0000000000005e44                _bss = .
                0x0000000000005e44                __bss = .
 *(.bss)
 .bss           0x0000000000005e44        0x0 setup.o
 .bss           0x0000000000005e44        0x0 print.o
 .bss           0x0000000000005e44        0x0 printk.o
 .bss           0x0000000000005e44        0x0 libcc.o
 .bss           0x0000000000005e44        0x8 scr.o
                0x0000000000005e4c                end = .
                0x0000000000005e4c                _end = .
                0x0000000000005e4c                __end = .
LOAD setup.o
LOAD print.o
LOAD printk.o
LOAD libcc.o
LOAD scr.o
OUTPUT(setup binary)

.rodata         0x0000000000005e4c       0x7c
 .rodata        0x0000000000005e4c        0xe print.o
 *fill*         0x0000000000005e5a        0x2 00
 .rodata        0x0000000000005e5c       0x6c printk.o

.comment        0x0000000000000000       0x74
 .comment       0x0000000000000000       0x1d print.o
 .comment       0x000000000000001d       0x1d printk.o
 .comment       0x000000000000003a       0x1d libcc.o
 .comment       0x0000000000000057       0x1d scr.o

.note.GNU-stack
                0x0000000000000000        0x0
 .note.GNU-stack
                0x0000000000000000        0x0 print.o
 .note.GNU-stack
                0x0000000000000000        0x0 printk.o
 .note.GNU-stack
                0x0000000000000000        0x0 libcc.o
 .note.GNU-stack
                0x0000000000000000        0x0 scr.o
